; Function Attrs: mustprogress nounwind uwtable
define dso_local void @_ZN25cmGhsMultiTargetGeneratorD0Ev(ptr noundef nonnull align 8 dereferenceable(232) %0) unnamed_addr #4 align 2 personality ptr @__gxx_personality_v0 {
  store ptr getelementptr inbounds ({ [5 x ptr] }, ptr @_ZTV25cmGhsMultiTargetGenerator, i64 0, i32 0, i64 2), ptr %0, align 8
  %2 = getelementptr inbounds i8, ptr %0, i64 200
  tail call void @_ZNSt7__cxx1112basic_stringIcSt11char_traitsIcESaIcEED1Ev(ptr noundef nonnull align 8 dereferenceable(32) %2) #21
  %3 = getelementptr inbounds i8, ptr %0, i64 168
  tail call void @_ZNSt7__cxx1112basic_stringIcSt11char_traitsIcESaIcEED1Ev(ptr noundef nonnull align 8 dereferenceable(32) %3) #21
  %4 = getelementptr inbounds i8, ptr %0, i64 128
  tail call void @_ZNSt7__cxx1112basic_stringIcSt11char_traitsIcESaIcEED1Ev(ptr noundef nonnull align 8 dereferenceable(32) %4) #21
  %5 = getelementptr inbounds i8, ptr %0, i64 80
  %6 = getelementptr inbounds i8, ptr %0, i64 96
  %7 = load ptr, ptr %6, align 8
  invoke void @_ZNSt8_Rb_treeINSt7__cxx1112basic_stringIcSt11char_traitsIcESaIcEEESt4pairIKS5_S5_ESt10_Select1stIS8_ESt4lessIS5_ESaIS8_EE8_M_eraseEPSt13_Rb_tree_nodeIS8_E(ptr noundef nonnull align 8 dereferenceable(48) %5, ptr noundef %7)
          to label %_ZNSt3mapINSt7__cxx1112basic_stringIcSt11char_traitsIcESaIcEEES5_St4lessIS5_ESaISt4pairIKS5_S5_EEED2Ev.exit.i unwind label %8

8:                                                ; preds = %1
  %9 = landingpad { ptr, i32 }
          catch ptr null
  %10 = extractvalue { ptr, i32 } %9, 0
  tail call void @__clang_call_terminate(ptr %10) #22
  unreachable

_ZNSt3mapINSt7__cxx1112basic_stringIcSt11char_traitsIcESaIcEEES5_St4lessIS5_ESaISt4pairIKS5_S5_EEED2Ev.exit.i: ; preds = %1
  %11 = getelementptr inbounds i8, ptr %0, i64 32
  %12 = getelementptr inbounds i8, ptr %0, i64 48
  %13 = load ptr, ptr %12, align 8
  invoke void @_ZNSt8_Rb_treeINSt7__cxx1112basic_stringIcSt11char_traitsIcESaIcEEESt4pairIKS5_S5_ESt10_Select1stIS8_ESt4lessIS5_ESaIS8_EE8_M_eraseEPSt13_Rb_tree_nodeIS8_E(ptr noundef nonnull align 8 dereferenceable(48) %11, ptr noundef %13)
          to label %_ZN25cmGhsMultiTargetGeneratorD2Ev.exit unwind label %14

14:                                               ; preds = %_ZNSt3mapINSt7__cxx1112basic_stringIcSt11char_traitsIcESaIcEEES5_St4lessIS5_ESaISt4pairIKS5_S5_EEED2Ev.exit.i
  %15 = landingpad { ptr, i32 }
          catch ptr null
  %16 = extractvalue { ptr, i32 } %15, 0
  tail call void @__clang_call_terminate(ptr %16) #22
  unreachable

_ZN25cmGhsMultiTargetGeneratorD2Ev.exit:          ; preds = %_ZNSt3mapINSt7__cxx1112basic_stringIcSt11char_traitsIcESaIcEEES5_St4lessIS5_ESaISt4pairIKS5_S5_EEED2Ev.exit.i
  tail call void @_ZdlPv(ptr noundef nonnull %0) #23
  ret void
}